target datalayout = "e-m:e-p270:32:32-p271:32:32-p272:64:64-i64:64-i128:128-f80:128-n8:16:32:64-S128"
target triple = "x86_64-pc-linux-gnu"

@.str.3 = private unnamed_addr constant [3 x i8] c"rb\00", align 1
@.str.5 = private unnamed_addr constant [55 x i8] c"/sys/devices/system/cpu/cpu%d/topology/thread_siblings\00", align 1
@.str.6 = private unnamed_addr constant [3 x i8] c"%x\00", align 1
@.str.7 = private unnamed_addr constant [60 x i8] c"/sys/devices/system/cpu/cpu%d/topology/thread_siblings_list\00", align 1
@.str.8 = private unnamed_addr constant [3 x i8] c"%d\00", align 1
@.str.9 = private unnamed_addr constant [5 x i8] c"%c%d\00", align 1

; Function Attrs: mustprogress uwtable
define internal noundef i32 @_ZL19get_thread_siblingsi(i32 noundef %0) #1 {
  %2 = alloca i32, align 4
  %3 = alloca i32, align 4
  %4 = alloca [256 x i8], align 16
  %5 = alloca ptr, align 8
  %6 = alloca i32, align 4
  %7 = alloca i32, align 4
  %8 = alloca i32, align 4
  %9 = alloca i32, align 4
  %10 = alloca i32, align 4
  %11 = alloca i8, align 1
  %12 = alloca i32, align 4
  %13 = alloca i32, align 4
  %14 = alloca i32, align 4
  store i32 %0, ptr %3, align 4, !tbaa !9
  call void @llvm.lifetime.start.p0(i64 256, ptr %4) #17
  %15 = getelementptr inbounds [256 x i8], ptr %4, i64 0, i64 0
  %16 = load i32, ptr %3, align 4, !tbaa !9
  %17 = call i32 (ptr, ptr, ...) @sprintf(ptr noundef %15, ptr noundef @.str.5, i32 noundef %16) #17
  call void @llvm.lifetime.start.p0(i64 8, ptr %5) #17
  store ptr null, ptr %5, align 8, !tbaa !15
  %18 = load ptr, ptr %5, align 8, !tbaa !15
  %19 = icmp ne ptr %18, null
  br i1 %19, label %20, label %30

20:                                               ; preds = %1
  call void @llvm.lifetime.start.p0(i64 4, ptr %6) #17
  store i32 -1, ptr %6, align 4, !tbaa !9
  call void @llvm.lifetime.start.p0(i64 4, ptr %7) #17
  %21 = load ptr, ptr %5, align 8, !tbaa !15
  %22 = call i32 (ptr, ptr, ...) @__isoc99_fscanf(ptr noundef %21, ptr noundef @.str.6, ptr noundef %6)
  store i32 %22, ptr %7, align 4, !tbaa !9
  %23 = load i32, ptr %7, align 4, !tbaa !9
  %24 = icmp ne i32 %23, 1
  br i1 %24, label %25, label %26

25:                                               ; preds = %20
  br label %26

26:                                               ; preds = %25, %20
  %27 = load ptr, ptr %5, align 8, !tbaa !15
  %28 = call i32 @fclose(ptr noundef %27)
  %29 = load i32, ptr %6, align 4, !tbaa !9
  store i32 %29, ptr %2, align 4
  store i32 1, ptr %8, align 4
  call void @llvm.lifetime.end.p0(i64 4, ptr %7) #17
  call void @llvm.lifetime.end.p0(i64 4, ptr %6) #17
  br label %93

30:                                               ; preds = %1
  %31 = getelementptr inbounds [256 x i8], ptr %4, i64 0, i64 0
  %32 = load i32, ptr %3, align 4, !tbaa !9
  %33 = call i32 (ptr, ptr, ...) @sprintf(ptr noundef %31, ptr noundef @.str.7, i32 noundef %32) #17
  %34 = getelementptr inbounds [256 x i8], ptr %4, i64 0, i64 0
  %35 = call noalias ptr @fopen(ptr noundef %34, ptr noundef @.str.3)
  store ptr %35, ptr %5, align 8, !tbaa !15
  %36 = load ptr, ptr %5, align 8, !tbaa !15
  %37 = icmp ne ptr %36, null
  br i1 %37, label %38, label %92

38:                                               ; preds = %30
  call void @llvm.lifetime.start.p0(i64 4, ptr %9) #17
  store i32 -1, ptr %9, align 4, !tbaa !9
  call void @llvm.lifetime.start.p0(i64 4, ptr %10) #17
  call void @llvm.lifetime.start.p0(i64 1, ptr %11) #17
  call void @llvm.lifetime.start.p0(i64 4, ptr %12) #17
  call void @llvm.lifetime.start.p0(i64 4, ptr %13) #17
  %39 = load ptr, ptr %5, align 8, !tbaa !15
  %40 = call i32 (ptr, ptr, ...) @__isoc99_fscanf(ptr noundef %39, ptr noundef @.str.8, ptr noundef %10)
  store i32 %40, ptr %13, align 4, !tbaa !9
  %41 = load i32, ptr %13, align 4, !tbaa !9
  %42 = icmp eq i32 %41, 1
  br i1 %42, label %43, label %87

43:                                               ; preds = %38
  %44 = load i32, ptr %10, align 4, !tbaa !9
  %45 = shl i32 1, %44
  store i32 %45, ptr %9, align 4, !tbaa !9
  br label %46

46:                                               ; preds = %84, %43
  %47 = load ptr, ptr %5, align 8, !tbaa !15
  %48 = call i32 (ptr, ptr, ...) @__isoc99_fscanf(ptr noundef %47, ptr noundef @.str.9, ptr noundef %11, ptr noundef %12)
  %49 = icmp eq i32 %48, 2
  br i1 %49, label %50, label %86

50:                                               ; preds = %46
  %51 = load i8, ptr %11, align 1, !tbaa !29
  %52 = sext i8 %51 to i32
  %53 = icmp eq i32 %52, 44
  br i1 %53, label %54, label %59

54:                                               ; preds = %50
  %55 = load i32, ptr %12, align 4, !tbaa !9
  %56 = shl i32 1, %55
  %57 = load i32, ptr %9, align 4, !tbaa !9
  %58 = or i32 %57, %56
  store i32 %58, ptr %9, align 4, !tbaa !9
  br label %59

59:                                               ; preds = %54, %50
  %60 = load i8, ptr %11, align 1, !tbaa !29
  %61 = sext i8 %60 to i32
  %62 = icmp eq i32 %61, 45
  br i1 %62, label %63, label %84

63:                                               ; preds = %59
  %64 = load i32, ptr %10, align 4, !tbaa !9
  %65 = load i32, ptr %12, align 4, !tbaa !9
  %66 = icmp slt i32 %64, %65
  br i1 %66, label %67, label %84

67:                                               ; preds = %63
  call void @llvm.lifetime.start.p0(i64 4, ptr %14) #17
  %68 = load i32, ptr %10, align 4, !tbaa !9
  %69 = add nsw i32 %68, 1
  store i32 %69, ptr %14, align 4, !tbaa !9
  br label %70

70:                                               ; preds = %80, %67
  %71 = load i32, ptr %14, align 4, !tbaa !9
  %72 = load i32, ptr %12, align 4, !tbaa !9
  %73 = icmp sle i32 %71, %72
  br i1 %73, label %75, label %74

74:                                               ; preds = %70
  store i32 4, ptr %8, align 4
  call void @llvm.lifetime.end.p0(i64 4, ptr %14) #17
  br label %83

75:                                               ; preds = %70
  %76 = load i32, ptr %14, align 4, !tbaa !9
  %77 = shl i32 1, %76
  %78 = load i32, ptr %9, align 4, !tbaa !9
  %79 = or i32 %78, %77
  store i32 %79, ptr %9, align 4, !tbaa !9
  br label %80

80:                                               ; preds = %75
  %81 = load i32, ptr %14, align 4, !tbaa !9
  %82 = add nsw i32 %81, 1
  store i32 %82, ptr %14, align 4, !tbaa !9
  br label %70, !llvm.loop !33

83:                                               ; preds = %74
  br label %84

84:                                               ; preds = %83, %63, %59
  %85 = load i32, ptr %12, align 4, !tbaa !9
  store i32 %85, ptr %10, align 4, !tbaa !9
  br label %46, !llvm.loop !34

86:                                               ; preds = %46
  br label %88

87:                                               ; preds = %38
  br label %88

88:                                               ; preds = %87, %86
  %89 = load ptr, ptr %5, align 8, !tbaa !15
  %90 = call i32 @fclose(ptr noundef %89)
  %91 = load i32, ptr %9, align 4, !tbaa !9
  store i32 %91, ptr %2, align 4
  store i32 1, ptr %8, align 4
  call void @llvm.lifetime.end.p0(i64 4, ptr %13) #17
  call void @llvm.lifetime.end.p0(i64 4, ptr %12) #17
  call void @llvm.lifetime.end.p0(i64 1, ptr %11) #17
  call void @llvm.lifetime.end.p0(i64 4, ptr %10) #17
  call void @llvm.lifetime.end.p0(i64 4, ptr %9) #17
  br label %93

92:                                               ; preds = %30
  store i32 -1, ptr %2, align 4
  store i32 1, ptr %8, align 4
  br label %93

93:                                               ; preds = %92, %88, %26
  call void @llvm.lifetime.end.p0(i64 8, ptr %5) #17
  call void @llvm.lifetime.end.p0(i64 256, ptr %4) #17
  %94 = load i32, ptr %2, align 4
  ret i32 %94
}