; Function Attrs: mustprogress uwtable
define internal fastcc noundef i32 @_ZL19get_thread_siblingsi(i32 noundef %0) unnamed_addr #5 {
  %2 = alloca [256 x i8], align 16
  %3 = alloca i32, align 4
  %4 = alloca i8, align 1
  %5 = alloca i32, align 4
  call void @llvm.lifetime.start.p0(i64 256, ptr nonnull %2) #18
  %6 = call i32 (ptr, ptr, ...) @sprintf(ptr noundef nonnull dereferenceable(1) %2, ptr noundef nonnull dereferenceable(1) @.str.5, i32 noundef %0) #18
  %7 = call i32 (ptr, ptr, ...) @sprintf(ptr noundef nonnull dereferenceable(1) %2, ptr noundef nonnull dereferenceable(1) @.str.7, i32 noundef %0) #18
  %8 = call noalias ptr @fopen(ptr noundef nonnull %2, ptr noundef nonnull @.str.3)
  %.not = icmp eq ptr %8, null
  br i1 %.not, label %30, label %9

9:                                                ; preds = %1
  call void @llvm.lifetime.start.p0(i64 4, ptr nonnull %3) #18
  call void @llvm.lifetime.start.p0(i64 1, ptr nonnull %4) #18
  call void @llvm.lifetime.start.p0(i64 4, ptr nonnull %5) #18
  %10 = call i32 (ptr, ptr, ...) @__isoc99_fscanf(ptr noundef nonnull %8, ptr noundef nonnull @.str.8, ptr noundef nonnull %3)
  %11 = icmp eq i32 %10, 1
  br i1 %11, label %12, label %.loopexit23

12:                                               ; preds = %9
  %13 = load i32, ptr %3, align 4, !tbaa !10
  %14 = shl nuw i32 1, %13
  %15 = call i32 (ptr, ptr, ...) @__isoc99_fscanf(ptr noundef nonnull %8, ptr noundef nonnull @.str.9, ptr noundef nonnull %4, ptr noundef nonnull %5)
  %16 = icmp eq i32 %15, 2
  br i1 %16, label %.lr.ph, label %.loopexit23

.lr.ph:                                           ; preds = %12, %.loopexit
  %.01826 = phi i32 [ %.2, %.loopexit ], [ %14, %12 ]
  %17 = load i8, ptr %4, align 1, !tbaa !21
  %18 = icmp eq i8 %17, 44
  %19 = load i32, ptr %5, align 4
  %20 = shl nuw i32 1, %19
  %21 = select i1 %18, i32 %20, i32 0
  %.1 = or i32 %21, %.01826
  %22 = icmp eq i8 %17, 45
  %23 = load i32, ptr %3, align 4
  %24 = icmp slt i32 %23, %19
  %or.cond = select i1 %22, i1 %24, i1 false
  br i1 %or.cond, label %.preheader, label %.loopexit

.preheader:                                       ; preds = %.lr.ph, %.preheader
  %.0.in25 = phi i32 [ %.0, %.preheader ], [ %23, %.lr.ph ]
  %.324 = phi i32 [ %26, %.preheader ], [ %.1, %.lr.ph ]
  %.0 = add nsw i32 %.0.in25, 1
  %25 = shl nuw i32 1, %.0
  %26 = or i32 %25, %.324
  %exitcond.not = icmp eq i32 %.0, %19
  br i1 %exitcond.not, label %.loopexit, label %.preheader, !llvm.loop !29

.loopexit:                                        ; preds = %.preheader, %.lr.ph
  %.2 = phi i32 [ %.1, %.lr.ph ], [ %26, %.preheader ]
  store i32 %19, ptr %3, align 4, !tbaa !10
  %27 = call i32 (ptr, ptr, ...) @__isoc99_fscanf(ptr noundef nonnull %8, ptr noundef nonnull @.str.9, ptr noundef nonnull %4, ptr noundef nonnull %5)
  %28 = icmp eq i32 %27, 2
  br i1 %28, label %.lr.ph, label %.loopexit23, !llvm.loop !30

.loopexit23:                                      ; preds = %.loopexit, %12, %9
  %.4 = phi i32 [ -1, %9 ], [ %14, %12 ], [ %.2, %.loopexit ]
  %29 = call i32 @fclose(ptr noundef nonnull %8)
  call void @llvm.lifetime.end.p0(i64 4, ptr nonnull %5) #18
  call void @llvm.lifetime.end.p0(i64 1, ptr nonnull %4) #18
  call void @llvm.lifetime.end.p0(i64 4, ptr nonnull %3) #18
  br label %30

30:                                               ; preds = %1, %.loopexit23
  %.017 = phi i32 [ %.4, %.loopexit23 ], [ -1, %1 ]
  call void @llvm.lifetime.end.p0(i64 256, ptr nonnull %2) #18
  ret i32 %.017
}